; Function Attrs: nounwind uwtable
define internal void @destroy_codec_capsule(ptr noundef %0) #0 {
  %2 = tail call ptr @PyCapsule_GetPointer(ptr noundef %0, ptr noundef nonnull @.str.6) #9
  %3 = getelementptr inbounds nuw i8, ptr %2, i64 8
  %4 = load ptr, ptr %3, align 8, !tbaa !35
  %5 = load i32, ptr %4, align 8, !tbaa !34
  %.not.i = icmp sgt i32 %5, -1
  br i1 %.not.i, label %6, label %Py_DECREF.exit

6:                                                ; preds = %1
  %7 = add nsw i32 %5, -1
  store i32 %7, ptr %4, align 8, !tbaa !34
  %8 = icmp eq i32 %7, 0
  br i1 %8, label %9, label %Py_DECREF.exit

9:                                                ; preds = %6
  tail call void @_Py_Dealloc(ptr noundef nonnull %4) #9
  br label %Py_DECREF.exit

Py_DECREF.exit:                                   ; preds = %1, %6, %9
  tail call void @PyMem_Free(ptr noundef nonnull %2) #9
  ret void
}